target datalayout = "e-m:e-p270:32:32-p271:32:32-p272:64:64-i64:64-i128:128-f80:128-n8:16:32:64-S128"
target triple = "x86_64-pc-linux-gnu"

%"class.llvm::StringRef" = type { ptr, i64 }
%"class.llvm::SmallPtrSetImplBase.base" = type <{ ptr, ptr, i32, i32, i32 }>
%"class.llvm::SelectionDAGISel" = type { ptr, ptr, ptr, %"class.std::unique_ptr.97", ptr, ptr, ptr, ptr, ptr, %"class.std::unique_ptr.105", ptr, ptr, ptr, ptr, i32, ptr, ptr, i8, %"class.llvm::SmallPtrSet.113", %"class.std::unique_ptr.116", i8, %"class.llvm::StringRef", i32, %"class.std::vector.124" }
%"class.std::unique_ptr.97" = type { %"struct.std::__uniq_ptr_data.98" }
%"struct.std::__uniq_ptr_data.98" = type { %"class.std::__uniq_ptr_impl.99" }
%"class.std::__uniq_ptr_impl.99" = type { %"class.std::tuple.100" }
%"class.std::tuple.100" = type { %"struct.std::_Tuple_impl.101" }
%"struct.std::_Tuple_impl.101" = type { %"struct.std::_Head_base.104" }
%"struct.std::_Head_base.104" = type { ptr }
%"class.std::unique_ptr.105" = type { %"struct.std::__uniq_ptr_data.106" }
%"struct.std::__uniq_ptr_data.106" = type { %"class.std::__uniq_ptr_impl.107" }
%"class.std::__uniq_ptr_impl.107" = type { %"class.std::tuple.108" }
%"class.std::tuple.108" = type { %"struct.std::_Tuple_impl.109" }
%"struct.std::_Tuple_impl.109" = type { %"struct.std::_Head_base.112" }
%"struct.std::_Head_base.112" = type { ptr }
%"class.llvm::SmallPtrSet.113" = type { %"class.llvm::SmallPtrSetImpl.base.115", [4 x ptr] }
%"class.llvm::SmallPtrSetImpl.base.115" = type { %"class.llvm::SmallPtrSetImplBase.base" }
%"class.std::unique_ptr.116" = type { %"struct.std::__uniq_ptr_data.117" }
%"struct.std::__uniq_ptr_data.117" = type { %"class.std::__uniq_ptr_impl.118" }
%"class.std::__uniq_ptr_impl.118" = type { %"class.std::tuple.119" }
%"class.std::tuple.119" = type { %"struct.std::_Tuple_impl.120" }
%"struct.std::_Tuple_impl.120" = type { %"struct.std::_Head_base.123" }
%"struct.std::_Head_base.123" = type { ptr }
%"class.std::vector.124" = type { %"struct.std::_Vector_base.125" }
%"struct.std::_Vector_base.125" = type { %"struct.std::_Vector_base<unsigned int, std::allocator<unsigned int>>::_Vector_impl" }
%"struct.std::_Vector_base<unsigned int, std::allocator<unsigned int>>::_Vector_impl" = type { %"struct.std::_Vector_base<unsigned int, std::allocator<unsigned int>>::_Vector_impl_data" }
%"struct.std::_Vector_base<unsigned int, std::allocator<unsigned int>>::_Vector_impl_data" = type { ptr, ptr, ptr }
%"class.llvm::DebugLoc" = type { %"class.llvm::TypedTrackingMDRef" }
%"class.llvm::TypedTrackingMDRef" = type { %"class.llvm::TrackingMDRef" }
%"class.llvm::TrackingMDRef" = type { ptr }
%"class.llvm::SDValue" = type <{ ptr, i32, [4 x i8] }>
%"struct.llvm::SDNodeFlags" = type { i16 }
%"class.llvm::ilist_node_base" = type { %"class.llvm::ilist_detail::node_base_prevnext" }
%"class.llvm::ilist_detail::node_base_prevnext" = type { ptr, ptr }
%"class.llvm::SDNode" = type { %"class.llvm::FoldingSetBase::Node", %"class.llvm::ilist_node.292", i32, %"struct.llvm::SDNodeFlags", %union.anon.295, i16, i32, ptr, ptr, ptr, i16, i16, i32, %"class.llvm::DebugLoc", i32, i32 }
%"class.llvm::FoldingSetBase::Node" = type { ptr }
%"class.llvm::ilist_node.292" = type { %"class.llvm::ilist_node_impl.293" }
%"class.llvm::ilist_node_impl.293" = type { %"class.llvm::ilist_node_base" }
%union.anon.295 = type { %"class.llvm::SDNode::LSBaseSDNodeBitfields" }
%"class.llvm::SDNode::LSBaseSDNodeBitfields" = type { i16 }
%"class.llvm::SDUse" = type { %"class.llvm::SDValue", ptr, ptr, ptr }

; Function Attrs: mustprogress nounwind uwtable
define linkonce_odr hidden noundef i32 @_ZNK4llvm6SDNode9getOpcodeEv(ptr noundef nonnull align 8 dereferenceable(88) %0) #1 comdat align 2 {
  %2 = alloca ptr, align 8
  store ptr %0, ptr %2, align 8
  %3 = load ptr, ptr %2, align 8
  %4 = getelementptr inbounds nuw %"class.llvm::SDNode", ptr %3, i32 0, i32 2
  %5 = load i32, ptr %4, align 8
  ret i32 %5
}

; Function Attrs: mustprogress nounwind uwtable
define linkonce_odr hidden noundef zeroext i1 @_ZN4llvm10LoadSDNode7classofEPKNS_6SDNodeE(ptr noundef %0) #1 comdat align 2 {
  %2 = alloca ptr, align 8
  store ptr %0, ptr %2, align 8
  %3 = load ptr, ptr %2, align 8
  %4 = call noundef i32 @_ZNK4llvm6SDNode9getOpcodeEv(ptr noundef nonnull align 8 dereferenceable(88) %3)
  %5 = icmp eq i32 %4, 294
  ret i1 %5
}

; Function Attrs: mustprogress nounwind uwtable
define linkonce_odr hidden noundef zeroext i1 @_ZN4llvm8isa_implINS_10LoadSDNodeENS_6SDNodeEvE4doitERKS2_(ptr noundef nonnull align 8 dereferenceable(88) %0) #1 comdat align 2 {
  %2 = alloca ptr, align 8
  store ptr %0, ptr %2, align 8
  %3 = load ptr, ptr %2, align 8
  %4 = call noundef zeroext i1 @_ZN4llvm10LoadSDNode7classofEPKNS_6SDNodeE(ptr noundef %3)
  ret i1 %4
}

; Function Attrs: mustprogress nounwind uwtable
define linkonce_odr hidden noundef zeroext i1 @_ZN4llvm11isa_impl_clINS_10LoadSDNodeEPKNS_6SDNodeEE4doitES4_(ptr noundef %0) #1 comdat align 2 {
  %2 = alloca ptr, align 8
  store ptr %0, ptr %2, align 8
  %3 = load ptr, ptr %2, align 8
  %4 = call noundef zeroext i1 @_ZN4llvm8isa_implINS_10LoadSDNodeENS_6SDNodeEvE4doitERKS2_(ptr noundef nonnull align 8 dereferenceable(88) %3)
  ret i1 %4
}

; Function Attrs: mustprogress nounwind uwtable
define linkonce_odr hidden noundef nonnull align 8 dereferenceable(8) ptr @_ZN4llvm13simplify_typeIPKNS_6SDNodeEE18getSimplifiedValueERS3_(ptr noundef nonnull align 8 dereferenceable(8) %0) #1 comdat align 2 {
  %2 = alloca ptr, align 8
  store ptr %0, ptr %2, align 8
  %3 = load ptr, ptr %2, align 8
  ret ptr %3
}

; Function Attrs: mustprogress nounwind uwtable
define linkonce_odr hidden noundef zeroext i1 @_ZN4llvm13isa_impl_wrapINS_10LoadSDNodeEPKNS_6SDNodeES4_E4doitERKS4_(ptr noundef nonnull align 8 dereferenceable(8) %0) #1 comdat align 2 {
  %2 = alloca ptr, align 8
  store ptr %0, ptr %2, align 8
  %3 = load ptr, ptr %2, align 8
  %4 = load ptr, ptr %3, align 8
  %5 = call noundef zeroext i1 @_ZN4llvm11isa_impl_clINS_10LoadSDNodeEPKNS_6SDNodeEE4doitES4_(ptr noundef %4)
  ret i1 %5
}

; Function Attrs: mustprogress nounwind uwtable
define linkonce_odr hidden noundef ptr @_ZN4llvm13simplify_typeIKPKNS_6SDNodeEE18getSimplifiedValueERS4_(ptr noundef nonnull align 8 dereferenceable(8) %0) #1 comdat align 2 {
  %2 = alloca ptr, align 8
  store ptr %0, ptr %2, align 8
  %3 = load ptr, ptr %2, align 8
  %4 = call noundef nonnull align 8 dereferenceable(8) ptr @_ZN4llvm13simplify_typeIPKNS_6SDNodeEE18getSimplifiedValueERS3_(ptr noundef nonnull align 8 dereferenceable(8) %3)
  %5 = load ptr, ptr %4, align 8
  ret ptr %5
}

; Function Attrs: mustprogress nounwind uwtable
define linkonce_odr hidden noundef ptr @_ZN4llvm16cast_convert_valINS_10LoadSDNodeEPKNS_6SDNodeES4_E4doitES4_(ptr noundef %0) #1 comdat align 2 {
  %2 = alloca ptr, align 8
  store ptr %0, ptr %2, align 8
  %3 = load ptr, ptr %2, align 8
  ret ptr %3
}

; Function Attrs: mustprogress nounwind uwtable
define linkonce_odr hidden noundef zeroext i1 @_ZN4llvm13isa_impl_wrapINS_10LoadSDNodeEKPKNS_6SDNodeES4_E4doitERS5_(ptr noundef nonnull align 8 dereferenceable(8) %0) #1 comdat align 2 {
  %2 = alloca ptr, align 8
  %3 = alloca ptr, align 8
  store ptr %0, ptr %2, align 8
  %4 = load ptr, ptr %2, align 8
  %5 = call noundef ptr @_ZN4llvm13simplify_typeIKPKNS_6SDNodeEE18getSimplifiedValueERS4_(ptr noundef nonnull align 8 dereferenceable(8) %4)
  store ptr %5, ptr %3, align 8
  %6 = call noundef zeroext i1 @_ZN4llvm13isa_impl_wrapINS_10LoadSDNodeEPKNS_6SDNodeES4_E4doitERKS4_(ptr noundef nonnull align 8 dereferenceable(8) %3)
  ret i1 %6
}

; Function Attrs: mustprogress nounwind uwtable
define linkonce_odr hidden noundef ptr @_ZN4llvm8CastInfoINS_10LoadSDNodeEPKNS_6SDNodeEvE6doCastERKS4_(ptr noundef nonnull align 8 dereferenceable(8) %0) #1 comdat align 2 {
  %2 = alloca ptr, align 8
  store ptr %0, ptr %2, align 8
  %3 = load ptr, ptr %2, align 8
  %4 = load ptr, ptr %3, align 8
  %5 = call noundef ptr @_ZN4llvm16cast_convert_valINS_10LoadSDNodeEPKNS_6SDNodeES4_E4doitES4_(ptr noundef %4)
  ret ptr %5
}

; Function Attrs: mustprogress nounwind uwtable
define linkonce_odr hidden noundef ptr @_ZN4llvm8CastInfoINS_10LoadSDNodeEPKNS_6SDNodeEvE10castFailedEv() #1 comdat align 2 {
  ret ptr null
}

; Function Attrs: mustprogress nounwind uwtable
define linkonce_odr hidden noundef zeroext i1 @_ZN4llvm14CastIsPossibleINS_10LoadSDNodeEPKNS_6SDNodeEvE10isPossibleERKS4_(ptr noundef nonnull align 8 dereferenceable(8) %0) #1 comdat align 2 {
  %2 = alloca ptr, align 8
  store ptr %0, ptr %2, align 8
  %3 = load ptr, ptr %2, align 8
  %4 = call noundef zeroext i1 @_ZN4llvm13isa_impl_wrapINS_10LoadSDNodeEKPKNS_6SDNodeES4_E4doitERS5_(ptr noundef nonnull align 8 dereferenceable(8) %3)
  ret i1 %4
}

; Function Attrs: mustprogress nounwind uwtable
define linkonce_odr hidden noundef nonnull align 8 dereferenceable(12) ptr @_ZNK4llvm5SDUsecvRKNS_7SDValueEEv(ptr noundef nonnull align 8 dereferenceable(40) %0) #1 comdat align 2 {
  %2 = alloca ptr, align 8
  store ptr %0, ptr %2, align 8
  %3 = load ptr, ptr %2, align 8
  %4 = getelementptr inbounds nuw %"class.llvm::SDUse", ptr %3, i32 0, i32 0
  ret ptr %4
}

; Function Attrs: mustprogress nounwind uwtable
define linkonce_odr hidden noundef ptr @_ZN4llvm8CastInfoINS_10LoadSDNodeEPKNS_6SDNodeEvE16doCastIfPossibleERKS4_(ptr noundef nonnull align 8 dereferenceable(8) %0) #1 comdat align 2 {
  %2 = alloca ptr, align 8
  %3 = alloca ptr, align 8
  store ptr %0, ptr %3, align 8
  %4 = load ptr, ptr %3, align 8
  %5 = call noundef zeroext i1 @_ZN4llvm14CastIsPossibleINS_10LoadSDNodeEPKNS_6SDNodeEvE10isPossibleERKS4_(ptr noundef nonnull align 8 dereferenceable(8) %4)
  br i1 %5, label %8, label %6

6:                                                ; preds = %1
  %7 = call noundef ptr @_ZN4llvm8CastInfoINS_10LoadSDNodeEPKNS_6SDNodeEvE10castFailedEv()
  store ptr %7, ptr %2, align 8
  br label %11

8:                                                ; preds = %1
  %9 = load ptr, ptr %3, align 8
  %10 = call noundef ptr @_ZN4llvm8CastInfoINS_10LoadSDNodeEPKNS_6SDNodeEvE6doCastERKS4_(ptr noundef nonnull align 8 dereferenceable(8) %9)
  store ptr %10, ptr %2, align 8
  br label %11

11:                                               ; preds = %8, %6
  %12 = load ptr, ptr %2, align 8
  ret ptr %12
}

; Function Attrs: mustprogress nounwind uwtable
define linkonce_odr hidden noundef nonnull align 8 dereferenceable(12) ptr @_ZNK4llvm6SDNode10getOperandEj(ptr noundef nonnull align 8 dereferenceable(88) %0, i32 noundef %1) #1 comdat align 2 {
  %3 = alloca ptr, align 8
  %4 = alloca i32, align 4
  store ptr %0, ptr %3, align 8
  store i32 %1, ptr %4, align 4
  %5 = load ptr, ptr %3, align 8
  %6 = getelementptr inbounds nuw %"class.llvm::SDNode", ptr %5, i32 0, i32 7
  %7 = load ptr, ptr %6, align 8
  %8 = load i32, ptr %4, align 4
  %9 = zext i32 %8 to i64
  %10 = getelementptr inbounds %"class.llvm::SDUse", ptr %7, i64 %9
  %11 = call noundef nonnull align 8 dereferenceable(12) ptr @_ZNK4llvm5SDUsecvRKNS_7SDValueEEv(ptr noundef nonnull align 8 dereferenceable(40) %10)
  ret ptr %11
}

; Function Attrs: mustprogress nounwind uwtable
define linkonce_odr hidden noundef i32 @_ZNK4llvm10LoadSDNode16getExtensionTypeEv(ptr noundef nonnull align 8 dereferenceable(112) %0) #1 comdat align 2 {
  %2 = alloca ptr, align 8
  store ptr %0, ptr %2, align 8
  %3 = load ptr, ptr %2, align 8
  %4 = getelementptr inbounds nuw %"class.llvm::SDNode", ptr %3, i32 0, i32 4
  %5 = load i16, ptr %4, align 2
  %6 = lshr i16 %5, 10
  %7 = and i16 %6, 3
  %8 = zext i16 %7 to i32
  ret i32 %8
}

; Function Attrs: mustprogress nounwind uwtable
define linkonce_odr hidden noundef ptr @_ZN4llvm8dyn_castINS_10LoadSDNodeEKNS_6SDNodeEEEDcPT0_(ptr noundef %0) #1 comdat {
  %2 = alloca ptr, align 8
  store ptr %0, ptr %2, align 8
  %3 = call noundef ptr @_ZN4llvm8CastInfoINS_10LoadSDNodeEPKNS_6SDNodeEvE16doCastIfPossibleERKS4_(ptr noundef nonnull align 8 dereferenceable(8) %2)
  ret ptr %3
}

; Function Attrs: mustprogress nounwind uwtable
define linkonce_odr hidden noundef nonnull align 8 dereferenceable(12) ptr @_ZNK4llvm7SDValue10getOperandEj(ptr noundef nonnull align 8 dereferenceable(12) %0, i32 noundef %1) #1 comdat align 2 {
  %3 = alloca ptr, align 8
  %4 = alloca i32, align 4
  store ptr %0, ptr %3, align 8
  store i32 %1, ptr %4, align 4
  %5 = load ptr, ptr %3, align 8
  %6 = getelementptr inbounds nuw %"class.llvm::SDValue", ptr %5, i32 0, i32 0
  %7 = load ptr, ptr %6, align 8
  %8 = load i32, ptr %4, align 4
  %9 = call noundef nonnull align 8 dereferenceable(12) ptr @_ZNK4llvm6SDNode10getOperandEj(ptr noundef nonnull align 8 dereferenceable(88) %7, i32 noundef %8)
  ret ptr %9
}

; Function Attrs: mustprogress nounwind uwtable
define linkonce_odr hidden noundef zeroext i1 @_ZN4llvm3ISD13isNON_EXTLoadEPKNS_6SDNodeE(ptr noundef %0) #1 comdat {
  %2 = alloca ptr, align 8
  %3 = alloca ptr, align 8
  store ptr %0, ptr %2, align 8
  %4 = load ptr, ptr %2, align 8
  %5 = call noundef ptr @_ZN4llvm8dyn_castINS_10LoadSDNodeEKNS_6SDNodeEEEDcPT0_(ptr noundef %4)
  store ptr %5, ptr %3, align 8
  %6 = load ptr, ptr %3, align 8
  %7 = icmp ne ptr %6, null
  br i1 %7, label %8, label %12

8:                                                ; preds = %1
  %9 = load ptr, ptr %3, align 8
  %10 = call noundef i32 @_ZNK4llvm10LoadSDNode16getExtensionTypeEv(ptr noundef nonnull align 8 dereferenceable(112) %9)
  %11 = icmp eq i32 %10, 0
  br label %12

12:                                               ; preds = %8, %1
  %13 = phi i1 [ false, %1 ], [ %11, %8 ]
  ret i1 %13
}

; Function Attrs: mustprogress nounwind uwtable
define linkonce_odr hidden noundef ptr @_ZNK4llvm7SDValue7getNodeEv(ptr noundef nonnull align 8 dereferenceable(12) %0) #1 comdat align 2 {
  %2 = alloca ptr, align 8
  store ptr %0, ptr %2, align 8
  %3 = load ptr, ptr %2, align 8
  %4 = getelementptr inbounds nuw %"class.llvm::SDValue", ptr %3, i32 0, i32 0
  %5 = load ptr, ptr %4, align 8
  ret ptr %5
}

; Function Attrs: mustprogress nounwind uwtable
define internal noundef zeroext i1 @_ZN12_GLOBAL__N_115X86DAGToDAGISel11tryFoldLoadEPN4llvm6SDNodeES3_NS1_7SDValueERS4_S5_S5_S5_S5_(ptr noundef nonnull align 8 dereferenceable(288) %0, ptr noundef %1, ptr noundef %2, ptr %3, i32 %4, ptr noundef nonnull align 8 dereferenceable(12) %5, ptr noundef nonnull align 8 dereferenceable(12) %6, ptr noundef nonnull align 8 dereferenceable(12) %7, ptr noundef nonnull align 8 dereferenceable(12) %8, ptr noundef nonnull align 8 dereferenceable(12) %9) #1 align 2 {
  %11 = alloca i1, align 1
  %12 = alloca %"class.llvm::SDValue", align 8
  %13 = alloca ptr, align 8
  %14 = alloca ptr, align 8
  %15 = alloca ptr, align 8
  %16 = alloca ptr, align 8
  %17 = alloca ptr, align 8
  %18 = alloca ptr, align 8
  %19 = alloca ptr, align 8
  %20 = alloca ptr, align 8
  %21 = alloca %"class.llvm::SDValue", align 8
  %22 = alloca %"class.llvm::SDValue", align 8
  %23 = alloca %"class.llvm::SDValue", align 8
  %24 = getelementptr inbounds nuw { ptr, i32 }, ptr %12, i32 0, i32 0
  store ptr %3, ptr %24, align 8
  %25 = getelementptr inbounds nuw { ptr, i32 }, ptr %12, i32 0, i32 1
  store i32 %4, ptr %25, align 8
  store ptr %0, ptr %13, align 8
  store ptr %1, ptr %14, align 8
  store ptr %2, ptr %15, align 8
  store ptr %5, ptr %16, align 8
  store ptr %6, ptr %17, align 8
  store ptr %7, ptr %18, align 8
  store ptr %8, ptr %19, align 8
  store ptr %9, ptr %20, align 8
  %26 = load ptr, ptr %13, align 8
  %27 = call noundef ptr @_ZNK4llvm7SDValue7getNodeEv(ptr noundef nonnull align 8 dereferenceable(12) %12)
  %28 = call noundef zeroext i1 @_ZN4llvm3ISD13isNON_EXTLoadEPKNS_6SDNodeE(ptr noundef %27)
  br i1 %28, label %29, label %47

29:                                               ; preds = %10
  call void @llvm.memcpy.p0.p0.i64(ptr align 8 %21, ptr align 8 %12, i64 16, i1 false)
  %30 = load ptr, ptr %15, align 8
  %31 = load ptr, ptr %14, align 8
  %32 = getelementptr inbounds nuw { ptr, i32 }, ptr %21, i32 0, i32 0
  %33 = load ptr, ptr %32, align 8
  %34 = getelementptr inbounds nuw { ptr, i32 }, ptr %21, i32 0, i32 1
  %35 = load i32, ptr %34, align 8
  %36 = call noundef zeroext i1 @_ZNK12_GLOBAL__N_115X86DAGToDAGISel18IsProfitableToFoldEN4llvm7SDValueEPNS1_6SDNodeES4_(ptr noundef nonnull align 8 dereferenceable(288) %26, ptr %33, i32 %35, ptr noundef %30, ptr noundef %31)
  br i1 %36, label %37, label %47

37:                                               ; preds = %29
  call void @llvm.memcpy.p0.p0.i64(ptr align 8 %22, ptr align 8 %12, i64 16, i1 false)
  %38 = load ptr, ptr %15, align 8
  %39 = load ptr, ptr %14, align 8
  %40 = getelementptr inbounds nuw %"class.llvm::SelectionDAGISel", ptr %26, i32 0, i32 14
  %41 = load i32, ptr %40, align 8
  %42 = getelementptr inbounds nuw { ptr, i32 }, ptr %22, i32 0, i32 0
  %43 = load ptr, ptr %42, align 8
  %44 = getelementptr inbounds nuw { ptr, i32 }, ptr %22, i32 0, i32 1
  %45 = load i32, ptr %44, align 8
  %46 = call noundef zeroext i1 @_ZN4llvm16SelectionDAGISel13IsLegalToFoldENS_7SDValueEPNS_6SDNodeES3_NS_15CodeGenOptLevelEb(ptr %43, i32 %45, ptr noundef %38, ptr noundef %39, i32 noundef %41, i1 noundef zeroext false)
  br i1 %46, label %48, label %47

47:                                               ; preds = %37, %29, %10
  store i1 false, ptr %11, align 1
  br label %61

48:                                               ; preds = %37
  %49 = call noundef ptr @_ZNK4llvm7SDValue7getNodeEv(ptr noundef nonnull align 8 dereferenceable(12) %12)
  %50 = call noundef nonnull align 8 dereferenceable(12) ptr @_ZNK4llvm7SDValue10getOperandEj(ptr noundef nonnull align 8 dereferenceable(12) %12, i32 noundef 1)
  call void @llvm.memcpy.p0.p0.i64(ptr align 8 %23, ptr align 8 %50, i64 16, i1 false)
  %51 = load ptr, ptr %16, align 8
  %52 = load ptr, ptr %17, align 8
  %53 = load ptr, ptr %18, align 8
  %54 = load ptr, ptr %19, align 8
  %55 = load ptr, ptr %20, align 8
  %56 = getelementptr inbounds nuw { ptr, i32 }, ptr %23, i32 0, i32 0
  %57 = load ptr, ptr %56, align 8
  %58 = getelementptr inbounds nuw { ptr, i32 }, ptr %23, i32 0, i32 1
  %59 = load i32, ptr %58, align 8
  %60 = call noundef zeroext i1 @_ZN12_GLOBAL__N_115X86DAGToDAGISel10selectAddrEPN4llvm6SDNodeENS1_7SDValueERS4_S5_S5_S5_S5_(ptr noundef nonnull align 8 dereferenceable(288) %26, ptr noundef %49, ptr %57, i32 %59, ptr noundef nonnull align 8 dereferenceable(12) %51, ptr noundef nonnull align 8 dereferenceable(12) %52, ptr noundef nonnull align 8 dereferenceable(12) %53, ptr noundef nonnull align 8 dereferenceable(12) %54, ptr noundef nonnull align 8 dereferenceable(12) %55)
  store i1 %60, ptr %11, align 1
  br label %61

61:                                               ; preds = %48, %47
  %62 = load i1, ptr %11, align 1
  ret i1 %62
}