; Function Attrs: mustprogress nounwind uwtable
define internal fastcc noundef zeroext i1 @_ZN12_GLOBAL__N_115X86DAGToDAGISel11tryFoldLoadEPN4llvm6SDNodeES3_NS1_7SDValueERS4_S5_S5_S5_S5_(ptr noundef nonnull align 8 dereferenceable(288) %0, ptr noundef %1, ptr noundef %2, ptr %3, i32 %4, ptr nocapture noundef nonnull writeonly align 8 dereferenceable(12) %5, ptr nocapture noundef nonnull writeonly align 8 dereferenceable(12) %6, ptr nocapture noundef nonnull writeonly align 8 dereferenceable(12) %7, ptr nocapture noundef nonnull writeonly align 8 dereferenceable(12) %8, ptr nocapture noundef nonnull writeonly align 8 dereferenceable(12) %9) unnamed_addr #0 align 2 {
  %11 = getelementptr inbounds nuw i8, ptr %3, i64 24
  %12 = load i32, ptr %11, align 8
  %13 = icmp ne i32 %12, 294
  %.not3.i = icmp eq ptr %3, null
  %.not.i = or i1 %.not3.i, %13
  br i1 %.not.i, label %_ZN4llvm3ISD13isNON_EXTLoadEPKNS_6SDNodeE.exit.thread, label %_ZN4llvm3ISD13isNON_EXTLoadEPKNS_6SDNodeE.exit

_ZN4llvm3ISD13isNON_EXTLoadEPKNS_6SDNodeE.exit:   ; preds = %10
  %14 = getelementptr inbounds nuw i8, ptr %3, i64 30
  %15 = load i16, ptr %14, align 2
  %16 = and i16 %15, 3072
  %17 = icmp eq i16 %16, 0
  br i1 %17, label %18, label %_ZN4llvm3ISD13isNON_EXTLoadEPKNS_6SDNodeE.exit.thread

18:                                               ; preds = %_ZN4llvm3ISD13isNON_EXTLoadEPKNS_6SDNodeE.exit
  %19 = tail call noundef zeroext i1 @_ZNK12_GLOBAL__N_115X86DAGToDAGISel18IsProfitableToFoldEN4llvm7SDValueEPNS1_6SDNodeES4_(ptr noundef nonnull align 8 dereferenceable(288) %0, ptr nonnull %3, i32 %4, ptr noundef %2, ptr noundef %1)
  br i1 %19, label %20, label %_ZN4llvm3ISD13isNON_EXTLoadEPKNS_6SDNodeE.exit.thread

20:                                               ; preds = %18
  %21 = getelementptr inbounds nuw i8, ptr %0, i64 112
  %22 = load i32, ptr %21, align 8
  %23 = tail call noundef zeroext i1 @_ZN4llvm16SelectionDAGISel13IsLegalToFoldENS_7SDValueEPNS_6SDNodeES3_NS_15CodeGenOptLevelEb(ptr nonnull %3, i32 %4, ptr noundef %2, ptr noundef %1, i32 noundef %22, i1 noundef zeroext false) #23
  br i1 %23, label %24, label %_ZN4llvm3ISD13isNON_EXTLoadEPKNS_6SDNodeE.exit.thread

24:                                               ; preds = %20
  %25 = getelementptr inbounds nuw i8, ptr %3, i64 40
  %26 = load ptr, ptr %25, align 8
  %27 = getelementptr inbounds i8, ptr %26, i64 40
  %.sroa.0.0.copyload = load ptr, ptr %27, align 8
  %.sroa.2.0..sroa_idx = getelementptr inbounds i8, ptr %26, i64 48
  %.sroa.2.0.copyload = load i32, ptr %.sroa.2.0..sroa_idx, align 8
  %28 = tail call fastcc noundef zeroext i1 @_ZN12_GLOBAL__N_115X86DAGToDAGISel10selectAddrEPN4llvm6SDNodeENS1_7SDValueERS4_S5_S5_S5_S5_(ptr noundef nonnull align 8 dereferenceable(288) %0, ptr noundef nonnull %3, ptr %.sroa.0.0.copyload, i32 %.sroa.2.0.copyload, ptr noundef nonnull align 8 dereferenceable(12) %5, ptr noundef nonnull align 8 dereferenceable(12) %6, ptr noundef nonnull align 8 dereferenceable(12) %7, ptr noundef nonnull align 8 dereferenceable(12) %8, ptr noundef nonnull align 8 dereferenceable(12) %9)
  br label %_ZN4llvm3ISD13isNON_EXTLoadEPKNS_6SDNodeE.exit.thread

_ZN4llvm3ISD13isNON_EXTLoadEPKNS_6SDNodeE.exit.thread: ; preds = %10, %_ZN4llvm3ISD13isNON_EXTLoadEPKNS_6SDNodeE.exit, %18, %20, %24
  %.0 = phi i1 [ %28, %24 ], [ false, %20 ], [ false, %18 ], [ false, %_ZN4llvm3ISD13isNON_EXTLoadEPKNS_6SDNodeE.exit ], [ false, %10 ]
  ret i1 %.0
}